; Function Attrs: mustprogress nounwind uwtable
define hidden noundef zeroext i1 @_ZN14LibraryCallKit22klass_needs_init_guardEP4Node(ptr noundef %0) local_unnamed_addr #0 align 2 {
  %2 = getelementptr inbounds i8, ptr %0, i64 48
  %3 = load i32, ptr %2, align 8
  %4 = and i32 %3, 16
  %.not = icmp eq i32 %4, 0
  br i1 %.not, label %34, label %5

5:                                                ; preds = %1
  %6 = load ptr, ptr %0, align 8
  %7 = getelementptr inbounds i8, ptr %6, i64 40
  %8 = load ptr, ptr %7, align 8
  %9 = tail call noundef ptr %8(ptr noundef nonnull align 8 dereferenceable(52) %0) #13
  %10 = getelementptr inbounds i8, ptr %9, i64 16
  %11 = load i32, ptr %10, align 8
  %12 = icmp ne i32 %11, 25
  %13 = icmp eq ptr %9, null
  %14 = or i1 %13, %12
  br i1 %14, label %34, label %15

15:                                               ; preds = %5
  %16 = load ptr, ptr %9, align 8
  %17 = getelementptr inbounds i8, ptr %16, i64 240
  %18 = load ptr, ptr %17, align 8
  %19 = tail call noundef ptr %18(ptr noundef nonnull align 8 dereferenceable(64) %9) #13
  %20 = getelementptr inbounds i8, ptr %19, i64 65
  %21 = load i8, ptr %20, align 1
  %22 = trunc i8 %21 to i1
  %23 = getelementptr inbounds i8, ptr %19, i64 64
  %24 = load i8, ptr %23, align 8
  %.not.i.i = icmp ne i8 %24, 4
  %or.cond.not.i.i = select i1 %22, i1 %.not.i.i, i1 false
  br i1 %or.cond.not.i.i, label %25, label %_ZN15ciInstanceKlass14is_initializedEv.exit

25:                                               ; preds = %15
  %26 = getelementptr inbounds i8, ptr %19, i64 16
  %27 = load ptr, ptr %26, align 8
  %.not.i.i.i = icmp eq ptr %27, null
  br i1 %.not.i.i.i, label %_ZNK10ciMetadata9is_loadedEv.exit.i.i, label %_ZNK10ciMetadata9is_loadedEv.exit.thread.i.i

_ZNK10ciMetadata9is_loadedEv.exit.i.i:            ; preds = %25
  %28 = load ptr, ptr %19, align 8
  %29 = getelementptr inbounds i8, ptr %28, i64 32
  %30 = load ptr, ptr %29, align 8
  %31 = tail call noundef zeroext i1 %30(ptr noundef nonnull align 8 dereferenceable(24) %19) #13
  br i1 %31, label %_ZNK10ciMetadata9is_loadedEv.exit.thread.i.i, label %_ZN15ciInstanceKlass14is_initializedEv.exit

_ZNK10ciMetadata9is_loadedEv.exit.thread.i.i:     ; preds = %_ZNK10ciMetadata9is_loadedEv.exit.i.i, %25
  tail call void @_ZN15ciInstanceKlass25compute_shared_init_stateEv(ptr noundef nonnull align 8 dereferenceable(144) %19) #13
  br label %_ZN15ciInstanceKlass14is_initializedEv.exit

_ZN15ciInstanceKlass14is_initializedEv.exit:      ; preds = %15, %_ZNK10ciMetadata9is_loadedEv.exit.i.i, %_ZNK10ciMetadata9is_loadedEv.exit.thread.i.i
  %32 = load i8, ptr %23, align 8
  %33 = icmp ne i8 %32, 4
  br label %34

34:                                               ; preds = %5, %1, %_ZN15ciInstanceKlass14is_initializedEv.exit
  %.0 = phi i1 [ %33, %_ZN15ciInstanceKlass14is_initializedEv.exit ], [ true, %1 ], [ true, %5 ]
  ret i1 %.0
}